target datalayout = "e-m:e-p270:32:32-p271:32:32-p272:64:64-i64:64-i128:128-f80:128-n8:16:32:64-S128"
target triple = "x86_64-pc-linux-gnu"

%struct.EncoderSession = type { i32, i32, i32, i32, ptr, ptr, ptr, i32, i32, i32, i64, i64, i64, i64, i32, i64, [16 x i8], %struct.SampleInfo, i32, %union.anon.4, ptr, ptr, ptr, double, double }
%struct.SampleInfo = type { i32, i32, i32, i32, i32, i32, i32, i32 }
%union.anon.4 = type { %struct.anon.6 }
%struct.anon.6 = type { ptr, %struct.FLACDecoderData }
%struct.FLACDecoderData = type { i64, ptr, i32, i64, [1024 x ptr], i64, i32 }

@stderr = external global ptr, align 8
@.str.85 = private unnamed_addr constant [40 x i8] c"ERROR got %s while decoding FLAC input\0A\00", align 1
@FLAC__StreamDecoderErrorStatusString = external constant [0 x ptr], align 8

; Function Attrs: nounwind sspstrong uwtable
define internal void @flac_decoder_error_callback(ptr noundef %0, i32 noundef %1, ptr noundef %2) #0 {
  %4 = alloca ptr, align 8
  %5 = alloca i32, align 4
  %6 = alloca ptr, align 8
  %7 = alloca ptr, align 8
  %8 = alloca ptr, align 8
  store ptr %0, ptr %4, align 8, !tbaa !48
  store i32 %1, ptr %5, align 4, !tbaa !13
  store ptr %2, ptr %6, align 8, !tbaa !48
  call void @llvm.lifetime.start.p0(i64 8, ptr %7) #14
  %9 = load ptr, ptr %6, align 8, !tbaa !48
  store ptr %9, ptr %7, align 8, !tbaa !48
  call void @llvm.lifetime.start.p0(i64 8, ptr %8) #14
  %10 = load ptr, ptr %7, align 8, !tbaa !48
  %11 = getelementptr inbounds nuw %struct.EncoderSession, ptr %10, i32 0, i32 19
  %12 = getelementptr inbounds nuw %struct.anon.6, ptr %11, i32 0, i32 1
  store ptr %12, ptr %8, align 8, !tbaa !48
  %13 = load ptr, ptr %7, align 8, !tbaa !48
  %14 = getelementptr inbounds nuw %struct.EncoderSession, ptr %13, i32 0, i32 4
  %15 = load ptr, ptr %14, align 8, !tbaa !24
  call void @stats_print_name(i32 noundef 1, ptr noundef %15)
  %16 = load ptr, ptr @stderr, align 8, !tbaa !4
  %17 = load i32, ptr %5, align 4, !tbaa !13
  %18 = zext i32 %17 to i64
  %19 = getelementptr inbounds nuw [0 x ptr], ptr @FLAC__StreamDecoderErrorStatusString, i64 0, i64 %18
  %20 = load ptr, ptr %19, align 8, !tbaa !11
  call void (ptr, i32, ptr, ...) @flac__utils_printf(ptr noundef %16, i32 noundef 1, ptr noundef @.str.85, ptr noundef %20)
  %21 = load ptr, ptr %7, align 8, !tbaa !48
  %22 = getelementptr inbounds nuw %struct.EncoderSession, ptr %21, i32 0, i32 8
  %23 = load i32, ptr %22, align 4, !tbaa !45
  %24 = icmp ne i32 %23, 0
  br i1 %24, label %28, label %25

25:                                               ; preds = %3
  %26 = load ptr, ptr %8, align 8, !tbaa !48
  %27 = getelementptr inbounds nuw %struct.FLACDecoderData, ptr %26, i32 0, i32 6
  store i32 1, ptr %27, align 8, !tbaa !175
  br label %28

28:                                               ; preds = %25, %3
  call void @llvm.lifetime.end.p0(i64 8, ptr %8) #14
  call void @llvm.lifetime.end.p0(i64 8, ptr %7) #14
  ret void
}