; Function Attrs: nounwind sspstrong uwtable
define internal void @flac_decoder_error_callback(ptr readnone captures(none) %0, i32 noundef %1, ptr noundef captures(none) %2) #0 {
  %4 = getelementptr inbounds nuw i8, ptr %2, i64 16
  %5 = load ptr, ptr %4, align 8, !tbaa !25
  tail call void @stats_print_name(i32 noundef 1, ptr noundef %5) #20
  %6 = load ptr, ptr @stderr, align 8, !tbaa !33
  %7 = zext i32 %1 to i64
  %8 = getelementptr inbounds nuw [0 x ptr], ptr @FLAC__StreamDecoderErrorStatusString, i64 0, i64 %7
  %9 = load ptr, ptr %8, align 8, !tbaa !42
  tail call void (ptr, i32, ptr, ...) @flac__utils_printf(ptr noundef %6, i32 noundef 1, ptr noundef nonnull @.str.85, ptr noundef %9) #20
  %10 = getelementptr inbounds nuw i8, ptr %2, i64 44
  %11 = load i32, ptr %10, align 4, !tbaa !22
  %.not = icmp eq i32 %11, 0
  br i1 %.not, label %12, label %14

12:                                               ; preds = %3
  %13 = getelementptr inbounds nuw i8, ptr %2, i64 8400
  store i32 1, ptr %13, align 8, !tbaa !175
  br label %14

14:                                               ; preds = %12, %3
  ret void
}